target datalayout = "e-m:e-p270:32:32-p271:32:32-p272:64:64-i64:64-i128:128-f80:128-n8:16:32:64-S128"
target triple = "x86_64-pc-linux-gnu"

%struct.AVFilterContext = type { ptr, ptr, ptr, ptr, ptr, i32, ptr, ptr, i32, ptr, ptr, i32, i32, ptr, ptr, ptr, ptr, i32, ptr, i32, i32 }
%struct.ColorCorrectContext = type { ptr, float, float, float, float, float, i32, i32, float, float, i32, i32, [4 x i32], [4 x i32], ptr, ptr, ptr, ptr, ptr }
%struct.AVFilterLink = type { ptr, ptr, ptr, ptr, i32, i32, i32, i32, %struct.AVRational, i32, i32, i32, %struct.AVChannelLayout, %struct.AVRational, ptr, i32, %struct.AVFilterFormatsConfig, %struct.AVFilterFormatsConfig }
%struct.AVChannelLayout = type { i32, i32, %union.anon.1, ptr }
%union.anon.1 = type { i64 }
%struct.AVRational = type { i32, i32 }
%struct.AVFilterFormatsConfig = type { ptr, ptr, ptr, ptr, ptr }

; Function Attrs: nounwind uwtable
define internal i32 @filter_frame(ptr noundef %0, ptr noundef %1) #2 {
  %3 = alloca ptr, align 8
  %4 = alloca ptr, align 8
  %5 = alloca ptr, align 8
  %6 = alloca ptr, align 8
  %7 = alloca i32, align 4
  %8 = alloca i32, align 4
  %9 = alloca float, align 4
  %10 = alloca float, align 4
  %11 = alloca float, align 4
  %12 = alloca float, align 4
  %13 = alloca i32, align 4
  store ptr %0, ptr %3, align 8, !tbaa !24
  store ptr %1, ptr %4, align 8, !tbaa !26
  call void @llvm.lifetime.start.p0(i64 8, ptr %5) #9
  %14 = load ptr, ptr %3, align 8, !tbaa !24
  %15 = getelementptr inbounds nuw %struct.AVFilterLink, ptr %14, i32 0, i32 2
  %16 = load ptr, ptr %15, align 8, !tbaa !28
  store ptr %16, ptr %5, align 8, !tbaa !4
  call void @llvm.lifetime.start.p0(i64 8, ptr %6) #9
  %17 = load ptr, ptr %5, align 8, !tbaa !4
  %18 = getelementptr inbounds nuw %struct.AVFilterContext, ptr %17, i32 0, i32 9
  %19 = load ptr, ptr %18, align 8, !tbaa !9
  store ptr %19, ptr %6, align 8, !tbaa !22
  call void @llvm.lifetime.start.p0(i64 4, ptr %7) #9
  %20 = load ptr, ptr %6, align 8, !tbaa !22
  %21 = getelementptr inbounds nuw %struct.ColorCorrectContext, ptr %20, i32 0, i32 6
  %22 = load i32, ptr %21, align 4, !tbaa !36
  %23 = icmp eq i32 %22, 3
  br i1 %23, label %24, label %25

24:                                               ; preds = %2
  br label %43

25:                                               ; preds = %2
  %26 = load ptr, ptr %6, align 8, !tbaa !22
  %27 = getelementptr inbounds nuw %struct.ColorCorrectContext, ptr %26, i32 0, i32 12
  %28 = getelementptr inbounds [4 x i32], ptr %27, i64 0, i64 1
  %29 = load i32, ptr %28, align 4, !tbaa !41
  %30 = load ptr, ptr %5, align 8, !tbaa !4
  %31 = call i32 @ff_filter_get_nb_threads(ptr noundef %30) #10
  %32 = icmp sgt i32 %29, %31
  br i1 %32, label %33, label %36

33:                                               ; preds = %25
  %34 = load ptr, ptr %5, align 8, !tbaa !4
  %35 = call i32 @ff_filter_get_nb_threads(ptr noundef %34) #10
  br label %41

36:                                               ; preds = %25
  %37 = load ptr, ptr %6, align 8, !tbaa !22
  %38 = getelementptr inbounds nuw %struct.ColorCorrectContext, ptr %37, i32 0, i32 12
  %39 = getelementptr inbounds [4 x i32], ptr %38, i64 0, i64 1
  %40 = load i32, ptr %39, align 4, !tbaa !41
  br label %41

41:                                               ; preds = %36, %33
  %42 = phi i32 [ %35, %33 ], [ %40, %36 ]
  br label %43

43:                                               ; preds = %41, %24
  %44 = phi i32 [ 1, %24 ], [ %42, %41 ]
  store i32 %44, ptr %7, align 4, !tbaa !41
  %45 = load ptr, ptr %6, align 8, !tbaa !22
  %46 = getelementptr inbounds nuw %struct.ColorCorrectContext, ptr %45, i32 0, i32 6
  %47 = load i32, ptr %46, align 4, !tbaa !36
  %48 = icmp ne i32 %47, 0
  br i1 %48, label %49, label %148

49:                                               ; preds = %43
  call void @llvm.lifetime.start.p0(i64 4, ptr %8) #9
  %50 = load ptr, ptr %6, align 8, !tbaa !22
  %51 = getelementptr inbounds nuw %struct.ColorCorrectContext, ptr %50, i32 0, i32 6
  %52 = load i32, ptr %51, align 4, !tbaa !36
  %53 = icmp eq i32 %52, 3
  br i1 %53, label %54, label %55

54:                                               ; preds = %49
  br label %57

55:                                               ; preds = %49
  %56 = load i32, ptr %7, align 4, !tbaa !41
  br label %57

57:                                               ; preds = %55, %54
  %58 = phi i32 [ 1, %54 ], [ %56, %55 ]
  store i32 %58, ptr %8, align 4, !tbaa !41
  call void @llvm.lifetime.start.p0(i64 4, ptr %9) #9
  store float 0.000000e+00, ptr %9, align 4, !tbaa !42
  call void @llvm.lifetime.start.p0(i64 4, ptr %10) #9
  store float 0.000000e+00, ptr %10, align 4, !tbaa !42
  call void @llvm.lifetime.start.p0(i64 4, ptr %11) #9
  store float 0.000000e+00, ptr %11, align 4, !tbaa !42
  call void @llvm.lifetime.start.p0(i64 4, ptr %12) #9
  store float 0.000000e+00, ptr %12, align 4, !tbaa !42
  %59 = load ptr, ptr %5, align 8, !tbaa !4
  %60 = load ptr, ptr %6, align 8, !tbaa !22
  %61 = getelementptr inbounds nuw %struct.ColorCorrectContext, ptr %60, i32 0, i32 17
  %62 = load ptr, ptr %61, align 8, !tbaa !43
  %63 = load ptr, ptr %4, align 8, !tbaa !26
  %64 = load i32, ptr %8, align 4, !tbaa !41
  %65 = call i32 @ff_filter_execute(ptr noundef %59, ptr noundef %62, ptr noundef %63, ptr noundef null, i32 noundef %64)
  call void @llvm.lifetime.start.p0(i64 4, ptr %13) #9
  store i32 0, ptr %13, align 4, !tbaa !41
  br label %66

66:                                               ; preds = %112, %57
  %67 = load i32, ptr %13, align 4, !tbaa !41
  %68 = load i32, ptr %8, align 4, !tbaa !41
  %69 = icmp slt i32 %67, %68
  br i1 %69, label %71, label %70

70:                                               ; preds = %66
  call void @llvm.lifetime.end.p0(i64 4, ptr %13) #9
  br label %115

71:                                               ; preds = %66
  %72 = load ptr, ptr %6, align 8, !tbaa !22
  %73 = getelementptr inbounds nuw %struct.ColorCorrectContext, ptr %72, i32 0, i32 16
  %74 = load ptr, ptr %73, align 8, !tbaa !44
  %75 = load i32, ptr %13, align 4, !tbaa !41
  %76 = sext i32 %75 to i64
  %77 = getelementptr inbounds [4 x float], ptr %74, i64 %76
  %78 = getelementptr inbounds [4 x float], ptr %77, i64 0, i64 0
  %79 = load float, ptr %78, align 4, !tbaa !42
  %80 = load float, ptr %9, align 4, !tbaa !42
  %81 = fadd nsz float %80, %79
  store float %81, ptr %9, align 4, !tbaa !42
  %82 = load ptr, ptr %6, align 8, !tbaa !22
  %83 = getelementptr inbounds nuw %struct.ColorCorrectContext, ptr %82, i32 0, i32 16
  %84 = load ptr, ptr %83, align 8, !tbaa !44
  %85 = load i32, ptr %13, align 4, !tbaa !41
  %86 = sext i32 %85 to i64
  %87 = getelementptr inbounds [4 x float], ptr %84, i64 %86
  %88 = getelementptr inbounds [4 x float], ptr %87, i64 0, i64 1
  %89 = load float, ptr %88, align 4, !tbaa !42
  %90 = load float, ptr %10, align 4, !tbaa !42
  %91 = fadd nsz float %90, %89
  store float %91, ptr %10, align 4, !tbaa !42
  %92 = load ptr, ptr %6, align 8, !tbaa !22
  %93 = getelementptr inbounds nuw %struct.ColorCorrectContext, ptr %92, i32 0, i32 16
  %94 = load ptr, ptr %93, align 8, !tbaa !44
  %95 = load i32, ptr %13, align 4, !tbaa !41
  %96 = sext i32 %95 to i64
  %97 = getelementptr inbounds [4 x float], ptr %94, i64 %96
  %98 = getelementptr inbounds [4 x float], ptr %97, i64 0, i64 2
  %99 = load float, ptr %98, align 4, !tbaa !42
  %100 = load float, ptr %11, align 4, !tbaa !42
  %101 = fadd nsz float %100, %99
  store float %101, ptr %11, align 4, !tbaa !42
  %102 = load ptr, ptr %6, align 8, !tbaa !22
  %103 = getelementptr inbounds nuw %struct.ColorCorrectContext, ptr %102, i32 0, i32 16
  %104 = load ptr, ptr %103, align 8, !tbaa !44
  %105 = load i32, ptr %13, align 4, !tbaa !41
  %106 = sext i32 %105 to i64
  %107 = getelementptr inbounds [4 x float], ptr %104, i64 %106
  %108 = getelementptr inbounds [4 x float], ptr %107, i64 0, i64 3
  %109 = load float, ptr %108, align 4, !tbaa !42
  %110 = load float, ptr %12, align 4, !tbaa !42
  %111 = fadd nsz float %110, %109
  store float %111, ptr %12, align 4, !tbaa !42
  br label %112

112:                                              ; preds = %71
  %113 = load i32, ptr %13, align 4, !tbaa !41
  %114 = add nsw i32 %113, 1
  store i32 %114, ptr %13, align 4, !tbaa !41
  br label %66, !llvm.loop !45

115:                                              ; preds = %70
  %116 = load i32, ptr %8, align 4, !tbaa !41
  %117 = sitofp i32 %116 to float
  %118 = load float, ptr %9, align 4, !tbaa !42
  %119 = fdiv nsz float %118, %117
  store float %119, ptr %9, align 4, !tbaa !42
  %120 = load i32, ptr %8, align 4, !tbaa !41
  %121 = sitofp i32 %120 to float
  %122 = load float, ptr %10, align 4, !tbaa !42
  %123 = fdiv nsz float %122, %121
  store float %123, ptr %10, align 4, !tbaa !42
  %124 = load i32, ptr %8, align 4, !tbaa !41
  %125 = sitofp i32 %124 to float
  %126 = load float, ptr %11, align 4, !tbaa !42
  %127 = fdiv nsz float %126, %125
  store float %127, ptr %11, align 4, !tbaa !42
  %128 = load i32, ptr %8, align 4, !tbaa !41
  %129 = sitofp i32 %128 to float
  %130 = load float, ptr %12, align 4, !tbaa !42
  %131 = fdiv nsz float %130, %129
  store float %131, ptr %12, align 4, !tbaa !42
  %132 = load float, ptr %9, align 4, !tbaa !42
  %133 = fneg nsz float %132
  %134 = load ptr, ptr %6, align 8, !tbaa !22
  %135 = getelementptr inbounds nuw %struct.ColorCorrectContext, ptr %134, i32 0, i32 2
  store float %133, ptr %135, align 4, !tbaa !47
  %136 = load float, ptr %10, align 4, !tbaa !42
  %137 = fneg nsz float %136
  %138 = load ptr, ptr %6, align 8, !tbaa !22
  %139 = getelementptr inbounds nuw %struct.ColorCorrectContext, ptr %138, i32 0, i32 1
  store float %137, ptr %139, align 8, !tbaa !48
  %140 = load float, ptr %11, align 4, !tbaa !42
  %141 = fneg nsz float %140
  %142 = load ptr, ptr %6, align 8, !tbaa !22
  %143 = getelementptr inbounds nuw %struct.ColorCorrectContext, ptr %142, i32 0, i32 4
  store float %141, ptr %143, align 4, !tbaa !49
  %144 = load float, ptr %12, align 4, !tbaa !42
  %145 = fneg nsz float %144
  %146 = load ptr, ptr %6, align 8, !tbaa !22
  %147 = getelementptr inbounds nuw %struct.ColorCorrectContext, ptr %146, i32 0, i32 3
  store float %145, ptr %147, align 8, !tbaa !50
  call void @llvm.lifetime.end.p0(i64 4, ptr %12) #9
  call void @llvm.lifetime.end.p0(i64 4, ptr %11) #9
  call void @llvm.lifetime.end.p0(i64 4, ptr %10) #9
  call void @llvm.lifetime.end.p0(i64 4, ptr %9) #9
  call void @llvm.lifetime.end.p0(i64 4, ptr %8) #9
  br label %148

148:                                              ; preds = %115, %43
  %149 = load ptr, ptr %5, align 8, !tbaa !4
  %150 = load ptr, ptr %6, align 8, !tbaa !22
  %151 = getelementptr inbounds nuw %struct.ColorCorrectContext, ptr %150, i32 0, i32 18
  %152 = load ptr, ptr %151, align 8, !tbaa !51
  %153 = load ptr, ptr %4, align 8, !tbaa !26
  %154 = load i32, ptr %7, align 4, !tbaa !41
  %155 = call i32 @ff_filter_execute(ptr noundef %149, ptr noundef %152, ptr noundef %153, ptr noundef null, i32 noundef %154)
  %156 = load ptr, ptr %5, align 8, !tbaa !4
  %157 = getelementptr inbounds nuw %struct.AVFilterContext, ptr %156, i32 0, i32 7
  %158 = load ptr, ptr %157, align 8, !tbaa !52
  %159 = getelementptr inbounds ptr, ptr %158, i64 0
  %160 = load ptr, ptr %159, align 8, !tbaa !24
  %161 = load ptr, ptr %4, align 8, !tbaa !26
  %162 = call i32 @ff_filter_frame(ptr noundef %160, ptr noundef %161)
  call void @llvm.lifetime.end.p0(i64 4, ptr %7) #9
  call void @llvm.lifetime.end.p0(i64 8, ptr %6) #9
  call void @llvm.lifetime.end.p0(i64 8, ptr %5) #9
  ret i32 %162
}