; Function Attrs: nounwind uwtable
define internal i32 @filter_frame(ptr noundef readonly captures(none) %0, ptr noundef %1) #2 {
  %3 = getelementptr inbounds nuw i8, ptr %0, i64 16
  %4 = load ptr, ptr %3, align 8, !tbaa !20
  %5 = getelementptr inbounds nuw i8, ptr %4, i64 72
  %6 = load ptr, ptr %5, align 8, !tbaa !4
  %7 = getelementptr inbounds nuw i8, ptr %6, i64 28
  %8 = load i32, ptr %7, align 4, !tbaa !29
  %9 = icmp eq i32 %8, 3
  br i1 %9, label %.thread.thread, label %13

.thread.thread:                                   ; preds = %2
  %10 = getelementptr inbounds nuw i8, ptr %6, i64 112
  %11 = load ptr, ptr %10, align 8, !tbaa !34
  %12 = tail call i32 @ff_filter_execute(ptr noundef nonnull %4, ptr noundef %11, ptr noundef %1, ptr noundef null, i32 noundef 1) #8
  br label %.lr.ph

13:                                               ; preds = %2
  %14 = getelementptr inbounds nuw i8, ptr %6, i64 56
  %15 = load i32, ptr %14, align 4, !tbaa !35
  %16 = tail call i32 @ff_filter_get_nb_threads(ptr noundef nonnull %4) #9
  %. = tail call i32 @llvm.smin.i32(i32 %15, i32 %16)
  %.not = icmp eq i32 %8, 0
  br i1 %.not, label %51, label %.thread

.thread:                                          ; preds = %13
  %17 = getelementptr inbounds nuw i8, ptr %6, i64 112
  %18 = load ptr, ptr %17, align 8, !tbaa !34
  %19 = tail call i32 @ff_filter_execute(ptr noundef nonnull %4, ptr noundef %18, ptr noundef %1, ptr noundef null, i32 noundef %.) #8
  %20 = icmp sgt i32 %., 0
  br i1 %20, label %.lr.ph, label %._crit_edge

.lr.ph:                                           ; preds = %.thread.thread, %.thread
  %21 = phi i32 [ 1, %.thread.thread ], [ %., %.thread ]
  %22 = getelementptr inbounds nuw i8, ptr %6, i64 104
  %23 = load ptr, ptr %22, align 8, !tbaa !36
  %wide.trip.count = zext nneg i32 %21 to i64
  br label %38

._crit_edge:                                      ; preds = %38, %.thread
  %24 = phi i32 [ %., %.thread ], [ %21, %38 ]
  %.053.lcssa = phi float [ 0.000000e+00, %.thread ], [ %41, %38 ]
  %.052.lcssa = phi float [ 0.000000e+00, %.thread ], [ %44, %38 ]
  %.051.lcssa = phi float [ 0.000000e+00, %.thread ], [ %47, %38 ]
  %.050.lcssa = phi float [ 0.000000e+00, %.thread ], [ %50, %38 ]
  %25 = sitofp i32 %24 to float
  %26 = fneg nsz float %.053.lcssa
  %27 = fdiv nsz float %26, %25
  %28 = getelementptr inbounds nuw i8, ptr %6, i64 12
  store float %27, ptr %28, align 4, !tbaa !37
  %29 = fneg nsz float %.052.lcssa
  %30 = fdiv nsz float %29, %25
  %31 = getelementptr inbounds nuw i8, ptr %6, i64 8
  store float %30, ptr %31, align 8, !tbaa !38
  %32 = fneg nsz float %.051.lcssa
  %33 = fdiv nsz float %32, %25
  %34 = getelementptr inbounds nuw i8, ptr %6, i64 20
  store float %33, ptr %34, align 4, !tbaa !39
  %35 = fneg nsz float %.050.lcssa
  %36 = fdiv nsz float %35, %25
  %37 = getelementptr inbounds nuw i8, ptr %6, i64 16
  store float %36, ptr %37, align 8, !tbaa !40
  br label %51

38:                                               ; preds = %.lr.ph, %38
  %indvars.iv = phi i64 [ 0, %.lr.ph ], [ %indvars.iv.next, %38 ]
  %.05062 = phi float [ 0.000000e+00, %.lr.ph ], [ %50, %38 ]
  %.05161 = phi float [ 0.000000e+00, %.lr.ph ], [ %47, %38 ]
  %.05260 = phi float [ 0.000000e+00, %.lr.ph ], [ %44, %38 ]
  %.05359 = phi float [ 0.000000e+00, %.lr.ph ], [ %41, %38 ]
  %39 = getelementptr inbounds nuw [4 x float], ptr %23, i64 %indvars.iv
  %40 = load float, ptr %39, align 4, !tbaa !41
  %41 = fadd nsz float %.05359, %40
  %42 = getelementptr inbounds nuw i8, ptr %39, i64 4
  %43 = load float, ptr %42, align 4, !tbaa !41
  %44 = fadd nsz float %.05260, %43
  %45 = getelementptr inbounds nuw i8, ptr %39, i64 8
  %46 = load float, ptr %45, align 4, !tbaa !41
  %47 = fadd nsz float %.05161, %46
  %48 = getelementptr inbounds nuw i8, ptr %39, i64 12
  %49 = load float, ptr %48, align 4, !tbaa !41
  %50 = fadd nsz float %.05062, %49
  %indvars.iv.next = add nuw nsw i64 %indvars.iv, 1
  %exitcond.not = icmp eq i64 %indvars.iv.next, %wide.trip.count
  br i1 %exitcond.not, label %._crit_edge, label %38, !llvm.loop !42

51:                                               ; preds = %._crit_edge, %13
  %52 = phi i32 [ %24, %._crit_edge ], [ %., %13 ]
  %53 = getelementptr inbounds nuw i8, ptr %6, i64 120
  %54 = load ptr, ptr %53, align 8, !tbaa !44
  %55 = tail call i32 @ff_filter_execute(ptr noundef nonnull %4, ptr noundef %54, ptr noundef %1, ptr noundef null, i32 noundef %52) #8
  %56 = getelementptr inbounds nuw i8, ptr %4, i64 56
  %57 = load ptr, ptr %56, align 8, !tbaa !45
  %58 = load ptr, ptr %57, align 8, !tbaa !46
  %59 = tail call i32 @ff_filter_frame(ptr noundef %58, ptr noundef %1) #8
  ret i32 %59
}